target datalayout = "e-m:e-p270:32:32-p271:32:32-p272:64:64-i64:64-i128:128-f80:128-n8:16:32:64-S128"
target triple = "x86_64-pc-linux-gnu"

%struct._psqlSettings = type { ptr, i32, ptr, i8, ptr, ptr, %struct.printQueryOpt, ptr, ptr, ptr, i8, i8, i32, i32, ptr, ptr, i8, [4 x ptr], i8, i32, ptr, i8, i32, ptr, ptr, i64, i64, i8, ptr, ptr, ptr, i8, i8, i8, i8, i8, i8, i8, i32, i32, i32, i32, i32, i32, i32, i32, ptr, ptr, ptr, i32, i8, i32 }
%struct.printQueryOpt = type { %struct.printTableOpt, ptr, ptr, ptr, i8, ptr, i32 }
%struct.printTableOpt = type { i32, i16, i32, i32, i16, i16, i32, i8, i8, i8, i8, i64, ptr, %struct.separator, %struct.separator, [2 x i8], i8, ptr, i32, i32, i32, i32, i32, i32 }
%struct.separator = type { ptr, i8 }
%struct.stat = type { i64, i64, i64, i32, i32, i32, i32, i64, i64, i64, i64, %struct.timespec, %struct.timespec, %struct.timespec, [3 x i64] }
%struct.timespec = type { i64, i64 }

@pset = external global %struct._psqlSettings, align 8
@completion_last_char = internal global i8 0, align 1
@completion_charp = internal global ptr null, align 8
@rl_completion_suppress_quote = external global i32, align 4
@completion_force_quote = internal global i8 0, align 1
@.str.2701 = private unnamed_addr constant [7 x i8] c" \09\0D\0A\22`\00", align 1

; Function Attrs: nounwind uwtable
define internal ptr @quote_file_name(ptr noundef %0, i32 noundef %1, ptr noundef %2) #0 {
  %4 = alloca ptr, align 8
  %5 = alloca i32, align 4
  %6 = alloca ptr, align 8
  %7 = alloca ptr, align 8
  %8 = alloca %struct.stat, align 8
  %9 = alloca ptr, align 8
  store ptr %0, ptr %4, align 8
  store i32 %1, ptr %5, align 4
  store ptr %2, ptr %6, align 8
  call void @llvm.lifetime.start.p0(i64 8, ptr %7) #8
  call void @llvm.lifetime.start.p0(i64 144, ptr %8) #8
  %10 = load ptr, ptr %4, align 8
  %11 = load ptr, ptr @completion_charp, align 8
  %12 = load i8, ptr %11, align 1
  %13 = load i8, ptr @completion_force_quote, align 1, !range !6, !noundef !7
  %14 = trunc i8 %13 to i1
  %15 = load i32, ptr getelementptr inbounds nuw (%struct._psqlSettings, ptr @pset, i32 0, i32 1), align 8
  %16 = call ptr @quote_if_needed(ptr noundef %10, ptr noundef @.str.2701, i8 noundef signext 39, i8 noundef signext %12, i1 noundef zeroext %14, i32 noundef %15)
  store ptr %16, ptr %7, align 8
  %17 = load ptr, ptr %7, align 8
  %18 = icmp ne ptr %17, null
  br i1 %18, label %22, label %19

19:                                               ; preds = %3
  %20 = load ptr, ptr %4, align 8
  %21 = call ptr @pg_strdup(ptr noundef %20)
  store ptr %21, ptr %7, align 8
  br label %22

22:                                               ; preds = %19, %3
  %23 = load ptr, ptr %7, align 8
  %24 = load i8, ptr %23, align 1
  %25 = sext i8 %24 to i32
  %26 = icmp eq i32 %25, 39
  br i1 %26, label %27, label %58

27:                                               ; preds = %22
  %28 = load i8, ptr @completion_last_char, align 1
  %29 = sext i8 %28 to i32
  %30 = icmp ne i32 %29, 39
  br i1 %30, label %31, label %58

31:                                               ; preds = %27
  %32 = load i32, ptr %5, align 4
  %33 = icmp ne i32 %32, 1
  br i1 %33, label %51, label %34

34:                                               ; preds = %31
  %35 = load ptr, ptr %6, align 8
  %36 = icmp ne ptr %35, null
  br i1 %36, label %37, label %42

37:                                               ; preds = %34
  %38 = load ptr, ptr %6, align 8
  %39 = load i8, ptr %38, align 1
  %40 = sext i8 %39 to i32
  %41 = icmp eq i32 %40, 39
  br i1 %41, label %51, label %42

42:                                               ; preds = %37, %34
  %43 = load ptr, ptr %4, align 8
  %44 = call i32 @stat(ptr noundef %43, ptr noundef %8) #8
  %45 = icmp ne i32 %44, 0
  br i1 %45, label %51, label %46

46:                                               ; preds = %42
  %47 = getelementptr inbounds nuw %struct.stat, ptr %8, i32 0, i32 3
  %48 = load i32, ptr %47, align 8
  %49 = and i32 %48, 61440
  %50 = icmp eq i32 %49, 16384
  br i1 %50, label %51, label %58

51:                                               ; preds = %46, %42, %37, %31
  call void @llvm.lifetime.start.p0(i64 8, ptr %9) #8
  %52 = load ptr, ptr %7, align 8
  %53 = load ptr, ptr %7, align 8
  %54 = call i64 @strlen(ptr noundef %53) #9
  %55 = getelementptr inbounds nuw i8, ptr %52, i64 %54
  %56 = getelementptr inbounds i8, ptr %55, i64 -1
  store ptr %56, ptr %9, align 8
  %57 = load ptr, ptr %9, align 8
  store i8 0, ptr %57, align 1
  call void @llvm.lifetime.end.p0(i64 8, ptr %9) #8
  br label %58

58:                                               ; preds = %51, %46, %27, %22
  store i32 0, ptr @rl_completion_suppress_quote, align 4
  %59 = load ptr, ptr %6, align 8
  %60 = icmp ne ptr %59, null
  br i1 %60, label %61, label %68

61:                                               ; preds = %58
  %62 = load ptr, ptr %6, align 8
  %63 = load i8, ptr %62, align 1
  %64 = sext i8 %63 to i32
  %65 = icmp ne i32 %64, 39
  br i1 %65, label %66, label %68

66:                                               ; preds = %61
  %67 = load ptr, ptr %6, align 8
  store i8 0, ptr %67, align 1
  br label %68

68:                                               ; preds = %66, %61, %58
  %69 = load ptr, ptr %7, align 8
  call void @llvm.lifetime.end.p0(i64 144, ptr %8) #8
  call void @llvm.lifetime.end.p0(i64 8, ptr %7) #8
  ret ptr %69
}