; Function Attrs: nounwind uwtable
define internal noundef ptr @quote_file_name(ptr noundef %0, i32 noundef %1, ptr noundef captures(address_is_null) %2) #0 {
  %4 = alloca %struct.stat, align 8
  call void @llvm.lifetime.start.p0(i64 144, ptr nonnull %4) #11
  %5 = load ptr, ptr @completion_charp, align 8
  %6 = load i8, ptr %5, align 1
  %.b18 = load i1, ptr @completion_force_quote, align 1
  %7 = load i32, ptr getelementptr inbounds nuw (i8, ptr @pset, i64 8), align 8
  %8 = tail call ptr @quote_if_needed(ptr noundef %0, ptr noundef nonnull @.str.2701, i8 noundef signext 39, i8 noundef signext %6, i1 noundef zeroext %.b18, i32 noundef %7) #11
  %.not = icmp eq ptr %8, null
  br i1 %.not, label %9, label %11

9:                                                ; preds = %3
  %10 = tail call ptr @pg_strdup(ptr noundef %0) #11
  br label %11

11:                                               ; preds = %9, %3
  %.0 = phi ptr [ %8, %3 ], [ %10, %9 ]
  %12 = load i8, ptr %.0, align 1
  %13 = icmp eq i8 %12, 39
  %14 = load i8, ptr @completion_last_char, align 1
  %15 = icmp ne i8 %14, 39
  %or.cond = select i1 %13, i1 %15, i1 false
  br i1 %or.cond, label %16, label %32

16:                                               ; preds = %11
  %.not19 = icmp eq i32 %1, 1
  br i1 %.not19, label %17, label %28

17:                                               ; preds = %16
  %.not20 = icmp eq ptr %2, null
  br i1 %.not20, label %21, label %18

18:                                               ; preds = %17
  %19 = load i8, ptr %2, align 1
  %20 = icmp eq i8 %19, 39
  br i1 %20, label %28, label %21

21:                                               ; preds = %18, %17
  %22 = call i32 @stat(ptr noundef %0, ptr noundef nonnull %4) #11
  %.not21 = icmp eq i32 %22, 0
  br i1 %.not21, label %23, label %28

23:                                               ; preds = %21
  %24 = getelementptr inbounds nuw i8, ptr %4, i64 24
  %25 = load i32, ptr %24, align 8
  %26 = and i32 %25, 61440
  %27 = icmp eq i32 %26, 16384
  br i1 %27, label %28, label %32

28:                                               ; preds = %23, %21, %18, %16
  %29 = tail call i64 @strlen(ptr noundef nonnull dereferenceable(1) %.0) #13
  %30 = getelementptr inbounds nuw i8, ptr %.0, i64 %29
  %31 = getelementptr inbounds i8, ptr %30, i64 -1
  store i8 0, ptr %31, align 1
  br label %32

32:                                               ; preds = %28, %23, %11
  store i32 0, ptr @rl_completion_suppress_quote, align 4
  %.not22 = icmp eq ptr %2, null
  br i1 %.not22, label %36, label %33

33:                                               ; preds = %32
  %34 = load i8, ptr %2, align 1
  %.not23 = icmp eq i8 %34, 39
  br i1 %.not23, label %36, label %35

35:                                               ; preds = %33
  store i8 0, ptr %2, align 1
  br label %36

36:                                               ; preds = %35, %33, %32
  call void @llvm.lifetime.end.p0(i64 144, ptr nonnull %4) #11
  ret ptr %.0
}